; Function Attrs: mustprogress uwtable
define void @_ZN6icu_7713UnicodeString16doCodepageCreateEPKciP10UConverterR10UErrorCode(ptr noundef nonnull align 8 dereferenceable(64) %0, ptr noundef %1, i32 noundef %2, ptr noundef %3, ptr noundef nonnull align 4 dereferenceable(4) %4) local_unnamed_addr #0 align 2 {
  %6 = alloca ptr, align 8
  %7 = alloca ptr, align 8
  %8 = load i32, ptr %4, align 4, !tbaa !8
  %9 = icmp slt i32 %8, 1
  br i1 %9, label %10, label %67

10:                                               ; preds = %5
  call void @llvm.lifetime.start.p0(i64 8, ptr nonnull %6) #7
  store ptr %1, ptr %6, align 8, !tbaa !10
  %11 = sext i32 %2 to i64
  %12 = getelementptr inbounds i8, ptr %1, i64 %11
  call void @llvm.lifetime.start.p0(i64 8, ptr nonnull %7) #7
  %13 = lshr i32 %2, 2
  %14 = add nuw nsw i32 %13, %2
  %.inv = icmp sgt i32 %2, 27
  %.018 = select i1 %.inv, i32 %14, i32 27
  %15 = tail call noundef signext i8 @_ZN6icu_7713UnicodeString18cloneArrayIfNeededEiiaPPia(ptr noundef nonnull align 8 dereferenceable(64) %0, i32 noundef %.018, i32 noundef %.018, i8 noundef signext 0, ptr noundef null, i8 noundef signext 0)
  %.not2022 = icmp eq i8 %15, 0
  br i1 %.not2022, label %._crit_edge, label %.lr.ph

.lr.ph:                                           ; preds = %10
  %16 = getelementptr inbounds nuw i8, ptr %0, i64 8
  %17 = getelementptr inbounds nuw i8, ptr %0, i64 10
  %18 = getelementptr inbounds nuw i8, ptr %0, i64 24
  %19 = getelementptr inbounds nuw i8, ptr %0, i64 12
  %20 = getelementptr inbounds nuw i8, ptr %0, i64 16
  %21 = ptrtoint ptr %12 to i64
  br label %22

._crit_edge:                                      ; preds = %54, %10
  call void @_ZN6icu_7713UnicodeString10setToBogusEv(ptr noundef nonnull align 8 dereferenceable(64) %0)
  br label %.loopexit

22:                                               ; preds = %.lr.ph, %54
  %23 = load i16, ptr %16, align 8, !tbaa !6
  %24 = and i16 %23, 2
  %.not.i = icmp eq i16 %24, 0
  %25 = load ptr, ptr %18, align 8
  %26 = select i1 %.not.i, ptr %25, ptr %17
  %27 = icmp slt i16 %23, 0
  %28 = ashr i16 %23, 5
  %29 = sext i16 %28 to i32
  %30 = load i32, ptr %19, align 4
  %31 = select i1 %27, i32 %30, i32 %29
  %32 = sext i32 %31 to i64
  %33 = getelementptr inbounds i16, ptr %26, i64 %32
  store ptr %33, ptr %7, align 8, !tbaa !13
  %34 = load i32, ptr %20, align 8
  %35 = sext i32 %34 to i64
  %36 = select i1 %.not.i, i64 %35, i64 27
  %37 = getelementptr inbounds i16, ptr %26, i64 %36
  call void @ucnv_toUnicode_77(ptr noundef %3, ptr noundef nonnull %7, ptr noundef %37, ptr noundef nonnull %6, ptr noundef %12, ptr noundef null, i8 noundef signext 1, ptr noundef nonnull %4)
  %38 = load ptr, ptr %7, align 8, !tbaa !13
  %39 = ptrtoint ptr %38 to i64
  %40 = ptrtoint ptr %26 to i64
  %41 = sub i64 %39, %40
  %42 = lshr exact i64 %41, 1
  %43 = trunc i64 %42 to i32
  %44 = icmp slt i32 %43, 1024
  %45 = load i16, ptr %16, align 8, !tbaa !6
  br i1 %44, label %46, label %50

46:                                               ; preds = %22
  %47 = and i16 %45, 31
  %.tr.i.i = trunc i64 %42 to i16
  %48 = shl i16 %.tr.i.i, 5
  %49 = or disjoint i16 %48, %47
  br label %_ZN6icu_7713UnicodeString9setLengthEi.exit

50:                                               ; preds = %22
  %51 = or i16 %45, -32
  store i32 %43, ptr %19, align 4, !tbaa !6
  br label %_ZN6icu_7713UnicodeString9setLengthEi.exit

_ZN6icu_7713UnicodeString9setLengthEi.exit:       ; preds = %46, %50
  %.sink = phi i16 [ %49, %46 ], [ %51, %50 ]
  store i16 %.sink, ptr %16, align 8, !tbaa !6
  %52 = load i32, ptr %4, align 4, !tbaa !8
  %53 = icmp eq i32 %52, 15
  br i1 %53, label %54, label %.loopexit

54:                                               ; preds = %_ZN6icu_7713UnicodeString9setLengthEi.exit
  store i32 0, ptr %4, align 4, !tbaa !8
  %55 = load i16, ptr %16, align 8, !tbaa !6
  %56 = icmp slt i16 %55, 0
  %57 = ashr i16 %55, 5
  %58 = sext i16 %57 to i32
  %59 = load i32, ptr %19, align 4
  %60 = select i1 %56, i32 %59, i32 %58
  %61 = load ptr, ptr %6, align 8, !tbaa !10
  %62 = ptrtoint ptr %61 to i64
  %63 = sub i64 %21, %62
  %.tr = trunc i64 %63 to i32
  %64 = shl i32 %.tr, 1
  %65 = add i32 %64, %60
  %66 = call noundef signext i8 @_ZN6icu_7713UnicodeString18cloneArrayIfNeededEiiaPPia(ptr noundef nonnull align 8 dereferenceable(64) %0, i32 noundef %65, i32 noundef %65, i8 noundef signext 1, ptr noundef null, i8 noundef signext 0)
  %.not20 = icmp eq i8 %66, 0
  br i1 %.not20, label %._crit_edge, label %22, !llvm.loop !15

.loopexit:                                        ; preds = %_ZN6icu_7713UnicodeString9setLengthEi.exit, %._crit_edge
  call void @llvm.lifetime.end.p0(i64 8, ptr nonnull %7) #7
  call void @llvm.lifetime.end.p0(i64 8, ptr nonnull %6) #7
  br label %67

67:                                               ; preds = %5, %.loopexit
  ret void
}